target datalayout = "e-m:e-p270:32:32-p271:32:32-p272:64:64-i64:64-i128:128-f80:128-n8:16:32:64-S128"
target triple = "x86_64-pc-linux-gnu"

%struct.MD5Context = type { [4 x i32], [2 x i32], [64 x i8] }

; Function Attrs: nounwind uwtable
define dso_local void @MD5Init(ptr noundef %0) #0 {
  %2 = alloca ptr, align 8
  store ptr %0, ptr %2, align 8, !tbaa !4
  %3 = load ptr, ptr %2, align 8, !tbaa !4
  %4 = getelementptr inbounds nuw %struct.MD5Context, ptr %3, i32 0, i32 0
  %5 = getelementptr inbounds [4 x i32], ptr %4, i64 0, i64 0
  store i32 1732584193, ptr %5, align 4, !tbaa !9
  %6 = load ptr, ptr %2, align 8, !tbaa !4
  %7 = getelementptr inbounds nuw %struct.MD5Context, ptr %6, i32 0, i32 0
  %8 = getelementptr inbounds [4 x i32], ptr %7, i64 0, i64 1
  store i32 -271733879, ptr %8, align 4, !tbaa !9
  %9 = load ptr, ptr %2, align 8, !tbaa !4
  %10 = getelementptr inbounds nuw %struct.MD5Context, ptr %9, i32 0, i32 0
  %11 = getelementptr inbounds [4 x i32], ptr %10, i64 0, i64 2
  store i32 -1732584194, ptr %11, align 4, !tbaa !9
  %12 = load ptr, ptr %2, align 8, !tbaa !4
  %13 = getelementptr inbounds nuw %struct.MD5Context, ptr %12, i32 0, i32 0
  %14 = getelementptr inbounds [4 x i32], ptr %13, i64 0, i64 3
  store i32 271733878, ptr %14, align 4, !tbaa !9
  %15 = load ptr, ptr %2, align 8, !tbaa !4
  %16 = getelementptr inbounds nuw %struct.MD5Context, ptr %15, i32 0, i32 1
  %17 = getelementptr inbounds [2 x i32], ptr %16, i64 0, i64 0
  store i32 0, ptr %17, align 4, !tbaa !9
  %18 = load ptr, ptr %2, align 8, !tbaa !4
  %19 = getelementptr inbounds nuw %struct.MD5Context, ptr %18, i32 0, i32 1
  %20 = getelementptr inbounds [2 x i32], ptr %19, i64 0, i64 1
  store i32 0, ptr %20, align 4, !tbaa !9
  ret void
}